target datalayout = "e-m:e-p270:32:32-p271:32:32-p272:64:64-i64:64-i128:128-f80:128-n8:16:32:64-S128"
target triple = "x86_64-pc-linux-gnu"

%"struct.std::array" = type { [16 x ptr] }
%class.anon.138 = type { ptr }
%"struct.__gnu_cxx::__ops::_Iter_pred" = type { %class.anon.138 }

@.str.28 = private unnamed_addr constant [10 x i8] c"COLORTERM\00", align 1
@.str.45 = private unnamed_addr constant [5 x i8] c"TERM\00", align 1

; Function Attrs: inlinehint mustprogress nounwind uwtable
define internal noundef zeroext i1 @"_ZZZN6spdlog7details2os17is_color_terminalEvENK3$_0clEvENKUlPKcE_clES4_"(ptr noundef nonnull align 8 dereferenceable(8) %0, ptr noundef %1) #3 align 2 {
  %3 = alloca ptr, align 8
  %4 = alloca ptr, align 8
  store ptr %0, ptr %3, align 8, !tbaa !123
  store ptr %1, ptr %4, align 8, !tbaa !8
  %5 = load ptr, ptr %3, align 8
  %6 = getelementptr inbounds nuw %class.anon.138, ptr %5, i32 0, i32 0
  %7 = load ptr, ptr %6, align 8, !tbaa !422
  %8 = load ptr, ptr %7, align 8, !tbaa !8
  %9 = load ptr, ptr %4, align 8, !tbaa !8
  %10 = call noundef ptr @strstr(ptr noundef %8, ptr noundef %9) #32
  %11 = icmp ne ptr %10, null
  ret i1 %11
}

; Function Attrs: mustprogress uwtable
define internal noundef zeroext i1 @"_ZN9__gnu_cxx5__ops10_Iter_predIZZN6spdlog7details2os17is_color_terminalEvENK3$_0clEvEUlPKcE_EclIPKS7_EEbT_"(ptr noundef nonnull align 8 dereferenceable(8) %0, ptr noundef %1) #5 align 2 {
  %3 = alloca ptr, align 8
  %4 = alloca ptr, align 8
  store ptr %0, ptr %3, align 8, !tbaa !420
  store ptr %1, ptr %4, align 8, !tbaa !124
  %5 = load ptr, ptr %3, align 8
  %6 = getelementptr inbounds nuw %"struct.__gnu_cxx::__ops::_Iter_pred", ptr %5, i32 0, i32 0
  %7 = load ptr, ptr %4, align 8, !tbaa !124
  %8 = load ptr, ptr %7, align 8, !tbaa !8
  %9 = call noundef zeroext i1 @"_ZZZN6spdlog7details2os17is_color_terminalEvENK3$_0clEvENKUlPKcE_clES4_"(ptr noundef nonnull align 8 dereferenceable(8) %6, ptr noundef %8)
  ret i1 %9
}

; Function Attrs: mustprogress uwtable
define internal noundef ptr @"_ZSt9__find_ifIPKPKcN9__gnu_cxx5__ops10_Iter_predIZZN6spdlog7details2os17is_color_terminalEvENK3$_0clEvEUlS1_E_EEET_SD_SD_T0_St26random_access_iterator_tag"(ptr noundef %0, ptr noundef %1, ptr %2) #5 {
  %4 = alloca ptr, align 8
  %5 = alloca %"struct.__gnu_cxx::__ops::_Iter_pred", align 8
  %6 = alloca ptr, align 8
  %7 = alloca ptr, align 8
  %8 = alloca i64, align 8
  %9 = alloca i32, align 4
  %10 = getelementptr inbounds nuw %"struct.__gnu_cxx::__ops::_Iter_pred", ptr %5, i32 0, i32 0
  %11 = getelementptr inbounds nuw %class.anon.138, ptr %10, i32 0, i32 0
  store ptr %2, ptr %11, align 8
  store ptr %0, ptr %6, align 8, !tbaa !124
  store ptr %1, ptr %7, align 8, !tbaa !124
  call void @llvm.lifetime.start.p0(i64 8, ptr %8) #13
  %12 = load ptr, ptr %7, align 8, !tbaa !124
  %13 = load ptr, ptr %6, align 8, !tbaa !124
  %14 = ptrtoint ptr %12 to i64
  %15 = ptrtoint ptr %13 to i64
  %16 = sub i64 %14, %15
  %17 = sdiv exact i64 %16, 8
  %18 = ashr i64 %17, 2
  store i64 %18, ptr %8, align 8, !tbaa !28
  br label %19

19:                                               ; preds = %51, %3
  %20 = load i64, ptr %8, align 8, !tbaa !28
  %21 = icmp sgt i64 %20, 0
  br i1 %21, label %22, label %54

22:                                               ; preds = %19
  %23 = load ptr, ptr %6, align 8, !tbaa !124
  %24 = call noundef zeroext i1 @"_ZN9__gnu_cxx5__ops10_Iter_predIZZN6spdlog7details2os17is_color_terminalEvENK3$_0clEvEUlPKcE_EclIPKS7_EEbT_"(ptr noundef nonnull align 8 dereferenceable(8) %5, ptr noundef %23)
  br i1 %24, label %25, label %27

25:                                               ; preds = %22
  %26 = load ptr, ptr %6, align 8, !tbaa !124
  store ptr %26, ptr %4, align 8
  store i32 1, ptr %9, align 4
  br label %88

27:                                               ; preds = %22
  %28 = load ptr, ptr %6, align 8, !tbaa !124
  %29 = getelementptr inbounds nuw ptr, ptr %28, i32 1
  store ptr %29, ptr %6, align 8, !tbaa !124
  %30 = load ptr, ptr %6, align 8, !tbaa !124
  %31 = call noundef zeroext i1 @"_ZN9__gnu_cxx5__ops10_Iter_predIZZN6spdlog7details2os17is_color_terminalEvENK3$_0clEvEUlPKcE_EclIPKS7_EEbT_"(ptr noundef nonnull align 8 dereferenceable(8) %5, ptr noundef %30)
  br i1 %31, label %32, label %34

32:                                               ; preds = %27
  %33 = load ptr, ptr %6, align 8, !tbaa !124
  store ptr %33, ptr %4, align 8
  store i32 1, ptr %9, align 4
  br label %88

34:                                               ; preds = %27
  %35 = load ptr, ptr %6, align 8, !tbaa !124
  %36 = getelementptr inbounds nuw ptr, ptr %35, i32 1
  store ptr %36, ptr %6, align 8, !tbaa !124
  %37 = load ptr, ptr %6, align 8, !tbaa !124
  %38 = call noundef zeroext i1 @"_ZN9__gnu_cxx5__ops10_Iter_predIZZN6spdlog7details2os17is_color_terminalEvENK3$_0clEvEUlPKcE_EclIPKS7_EEbT_"(ptr noundef nonnull align 8 dereferenceable(8) %5, ptr noundef %37)
  br i1 %38, label %39, label %41

39:                                               ; preds = %34
  %40 = load ptr, ptr %6, align 8, !tbaa !124
  store ptr %40, ptr %4, align 8
  store i32 1, ptr %9, align 4
  br label %88

41:                                               ; preds = %34
  %42 = load ptr, ptr %6, align 8, !tbaa !124
  %43 = getelementptr inbounds nuw ptr, ptr %42, i32 1
  store ptr %43, ptr %6, align 8, !tbaa !124
  %44 = load ptr, ptr %6, align 8, !tbaa !124
  %45 = call noundef zeroext i1 @"_ZN9__gnu_cxx5__ops10_Iter_predIZZN6spdlog7details2os17is_color_terminalEvENK3$_0clEvEUlPKcE_EclIPKS7_EEbT_"(ptr noundef nonnull align 8 dereferenceable(8) %5, ptr noundef %44)
  br i1 %45, label %46, label %48

46:                                               ; preds = %41
  %47 = load ptr, ptr %6, align 8, !tbaa !124
  store ptr %47, ptr %4, align 8
  store i32 1, ptr %9, align 4
  br label %88

48:                                               ; preds = %41
  %49 = load ptr, ptr %6, align 8, !tbaa !124
  %50 = getelementptr inbounds nuw ptr, ptr %49, i32 1
  store ptr %50, ptr %6, align 8, !tbaa !124
  br label %51

51:                                               ; preds = %48
  %52 = load i64, ptr %8, align 8, !tbaa !28
  %53 = add nsw i64 %52, -1
  store i64 %53, ptr %8, align 8, !tbaa !28
  br label %19, !llvm.loop !416

54:                                               ; preds = %19
  %55 = load ptr, ptr %7, align 8, !tbaa !124
  %56 = load ptr, ptr %6, align 8, !tbaa !124
  %57 = ptrtoint ptr %55 to i64
  %58 = ptrtoint ptr %56 to i64
  %59 = sub i64 %57, %58
  %60 = sdiv exact i64 %59, 8
  switch i64 %60, label %86 [
    i64 3, label %61
    i64 2, label %69
    i64 1, label %77
    i64 0, label %85
  ]

61:                                               ; preds = %54
  %62 = load ptr, ptr %6, align 8, !tbaa !124
  %63 = call noundef zeroext i1 @"_ZN9__gnu_cxx5__ops10_Iter_predIZZN6spdlog7details2os17is_color_terminalEvENK3$_0clEvEUlPKcE_EclIPKS7_EEbT_"(ptr noundef nonnull align 8 dereferenceable(8) %5, ptr noundef %62)
  br i1 %63, label %64, label %66

64:                                               ; preds = %61
  %65 = load ptr, ptr %6, align 8, !tbaa !124
  store ptr %65, ptr %4, align 8
  store i32 1, ptr %9, align 4
  br label %88

66:                                               ; preds = %61
  %67 = load ptr, ptr %6, align 8, !tbaa !124
  %68 = getelementptr inbounds nuw ptr, ptr %67, i32 1
  store ptr %68, ptr %6, align 8, !tbaa !124
  br label %69

69:                                               ; preds = %54, %66
  %70 = load ptr, ptr %6, align 8, !tbaa !124
  %71 = call noundef zeroext i1 @"_ZN9__gnu_cxx5__ops10_Iter_predIZZN6spdlog7details2os17is_color_terminalEvENK3$_0clEvEUlPKcE_EclIPKS7_EEbT_"(ptr noundef nonnull align 8 dereferenceable(8) %5, ptr noundef %70)
  br i1 %71, label %72, label %74

72:                                               ; preds = %69
  %73 = load ptr, ptr %6, align 8, !tbaa !124
  store ptr %73, ptr %4, align 8
  store i32 1, ptr %9, align 4
  br label %88

74:                                               ; preds = %69
  %75 = load ptr, ptr %6, align 8, !tbaa !124
  %76 = getelementptr inbounds nuw ptr, ptr %75, i32 1
  store ptr %76, ptr %6, align 8, !tbaa !124
  br label %77

77:                                               ; preds = %54, %74
  %78 = load ptr, ptr %6, align 8, !tbaa !124
  %79 = call noundef zeroext i1 @"_ZN9__gnu_cxx5__ops10_Iter_predIZZN6spdlog7details2os17is_color_terminalEvENK3$_0clEvEUlPKcE_EclIPKS7_EEbT_"(ptr noundef nonnull align 8 dereferenceable(8) %5, ptr noundef %78)
  br i1 %79, label %80, label %82

80:                                               ; preds = %77
  %81 = load ptr, ptr %6, align 8, !tbaa !124
  store ptr %81, ptr %4, align 8
  store i32 1, ptr %9, align 4
  br label %88

82:                                               ; preds = %77
  %83 = load ptr, ptr %6, align 8, !tbaa !124
  %84 = getelementptr inbounds nuw ptr, ptr %83, i32 1
  store ptr %84, ptr %6, align 8, !tbaa !124
  br label %85

85:                                               ; preds = %54, %82
  br label %86

86:                                               ; preds = %54, %85
  %87 = load ptr, ptr %7, align 8, !tbaa !124
  store ptr %87, ptr %4, align 8
  store i32 1, ptr %9, align 4
  br label %88

88:                                               ; preds = %86, %80, %72, %64, %46, %39, %32, %25
  call void @llvm.lifetime.end.p0(i64 8, ptr %8) #13
  %89 = load ptr, ptr %4, align 8
  ret ptr %89
}

; Function Attrs: inlinehint mustprogress nounwind uwtable
define linkonce_odr dso_local void @_ZSt19__iterator_categoryIPKPKcENSt15iterator_traitsIT_E17iterator_categoryERKS5_(ptr noundef nonnull align 8 dereferenceable(8) %0) #3 comdat {
  %2 = alloca ptr, align 8
  store ptr %0, ptr %2, align 8, !tbaa !417
  ret void
}

; Function Attrs: mustprogress nounwind uwtable
define internal void @"_ZN9__gnu_cxx5__ops10_Iter_predIZZN6spdlog7details2os17is_color_terminalEvENK3$_0clEvEUlPKcE_EC2ES8_"(ptr noundef nonnull align 8 dereferenceable(8) %0, ptr %1) unnamed_addr #0 align 2 {
  %3 = alloca %class.anon.138, align 8
  %4 = alloca ptr, align 8
  %5 = getelementptr inbounds nuw %class.anon.138, ptr %3, i32 0, i32 0
  store ptr %1, ptr %5, align 8
  store ptr %0, ptr %4, align 8, !tbaa !420
  %6 = load ptr, ptr %4, align 8
  %7 = getelementptr inbounds nuw %"struct.__gnu_cxx::__ops::_Iter_pred", ptr %6, i32 0, i32 0
  call void @llvm.memcpy.p0.p0.i64(ptr align 8 %7, ptr align 8 %3, i64 8, i1 false), !tbaa.struct !413
  ret void
}

; Function Attrs: inlinehint mustprogress uwtable
define internal noundef ptr @"_ZSt9__find_ifIPKPKcN9__gnu_cxx5__ops10_Iter_predIZZN6spdlog7details2os17is_color_terminalEvENK3$_0clEvEUlS1_E_EEET_SD_SD_T0_"(ptr noundef %0, ptr noundef %1, ptr %2) #2 {
  %4 = alloca %"struct.__gnu_cxx::__ops::_Iter_pred", align 8
  %5 = alloca ptr, align 8
  %6 = alloca ptr, align 8
  %7 = alloca %"struct.__gnu_cxx::__ops::_Iter_pred", align 8
  %8 = getelementptr inbounds nuw %"struct.__gnu_cxx::__ops::_Iter_pred", ptr %4, i32 0, i32 0
  %9 = getelementptr inbounds nuw %class.anon.138, ptr %8, i32 0, i32 0
  store ptr %2, ptr %9, align 8
  store ptr %0, ptr %5, align 8, !tbaa !124
  store ptr %1, ptr %6, align 8, !tbaa !124
  %10 = load ptr, ptr %5, align 8, !tbaa !124
  %11 = load ptr, ptr %6, align 8, !tbaa !124
  call void @llvm.memcpy.p0.p0.i64(ptr align 8 %7, ptr align 8 %4, i64 8, i1 false), !tbaa.struct !413
  call void @_ZSt19__iterator_categoryIPKPKcENSt15iterator_traitsIT_E17iterator_categoryERKS5_(ptr noundef nonnull align 8 dereferenceable(8) %5)
  %12 = getelementptr inbounds nuw %"struct.__gnu_cxx::__ops::_Iter_pred", ptr %7, i32 0, i32 0
  %13 = getelementptr inbounds nuw %class.anon.138, ptr %12, i32 0, i32 0
  %14 = load ptr, ptr %13, align 8
  %15 = call noundef ptr @"_ZSt9__find_ifIPKPKcN9__gnu_cxx5__ops10_Iter_predIZZN6spdlog7details2os17is_color_terminalEvENK3$_0clEvEUlS1_E_EEET_SD_SD_T0_St26random_access_iterator_tag"(ptr noundef %10, ptr noundef %11, ptr %14)
  ret ptr %15
}

; Function Attrs: inlinehint mustprogress uwtable
define internal ptr @"_ZN9__gnu_cxx5__ops11__pred_iterIZZN6spdlog7details2os17is_color_terminalEvENK3$_0clEvEUlPKcE_EENS0_10_Iter_predIT_EESA_"(ptr %0) #2 {
  %2 = alloca %"struct.__gnu_cxx::__ops::_Iter_pred", align 8
  %3 = alloca %class.anon.138, align 8
  %4 = alloca %class.anon.138, align 8
  %5 = getelementptr inbounds nuw %class.anon.138, ptr %3, i32 0, i32 0
  store ptr %0, ptr %5, align 8
  call void @llvm.memcpy.p0.p0.i64(ptr align 8 %4, ptr align 8 %3, i64 8, i1 false), !tbaa.struct !413
  %6 = getelementptr inbounds nuw %class.anon.138, ptr %4, i32 0, i32 0
  %7 = load ptr, ptr %6, align 8
  call void @"_ZN9__gnu_cxx5__ops10_Iter_predIZZN6spdlog7details2os17is_color_terminalEvENK3$_0clEvEUlPKcE_EC2ES8_"(ptr noundef nonnull align 8 dereferenceable(8) %2, ptr %7)
  %8 = getelementptr inbounds nuw %"struct.__gnu_cxx::__ops::_Iter_pred", ptr %2, i32 0, i32 0
  %9 = getelementptr inbounds nuw %class.anon.138, ptr %8, i32 0, i32 0
  %10 = load ptr, ptr %9, align 8
  ret ptr %10
}

; Function Attrs: inlinehint mustprogress uwtable
define internal noundef ptr @"_ZSt7find_ifIPKPKcZZN6spdlog7details2os17is_color_terminalEvENK3$_0clEvEUlS1_E_ET_S9_S9_T0_"(ptr noundef %0, ptr noundef %1, ptr %2) #2 {
  %4 = alloca %class.anon.138, align 8
  %5 = alloca ptr, align 8
  %6 = alloca ptr, align 8
  %7 = alloca %"struct.__gnu_cxx::__ops::_Iter_pred", align 8
  %8 = alloca %class.anon.138, align 8
  %9 = getelementptr inbounds nuw %class.anon.138, ptr %4, i32 0, i32 0
  store ptr %2, ptr %9, align 8
  store ptr %0, ptr %5, align 8, !tbaa !124
  store ptr %1, ptr %6, align 8, !tbaa !124
  %10 = load ptr, ptr %5, align 8, !tbaa !124
  %11 = load ptr, ptr %6, align 8, !tbaa !124
  call void @llvm.memcpy.p0.p0.i64(ptr align 8 %8, ptr align 8 %4, i64 8, i1 false), !tbaa.struct !413
  %12 = getelementptr inbounds nuw %class.anon.138, ptr %8, i32 0, i32 0
  %13 = load ptr, ptr %12, align 8
  %14 = call ptr @"_ZN9__gnu_cxx5__ops11__pred_iterIZZN6spdlog7details2os17is_color_terminalEvENK3$_0clEvEUlPKcE_EENS0_10_Iter_predIT_EESA_"(ptr %13)
  %15 = getelementptr inbounds nuw %"struct.__gnu_cxx::__ops::_Iter_pred", ptr %7, i32 0, i32 0
  %16 = getelementptr inbounds nuw %class.anon.138, ptr %15, i32 0, i32 0
  store ptr %14, ptr %16, align 8
  %17 = getelementptr inbounds nuw %"struct.__gnu_cxx::__ops::_Iter_pred", ptr %7, i32 0, i32 0
  %18 = getelementptr inbounds nuw %class.anon.138, ptr %17, i32 0, i32 0
  %19 = load ptr, ptr %18, align 8
  %20 = call noundef ptr @"_ZSt9__find_ifIPKPKcN9__gnu_cxx5__ops10_Iter_predIZZN6spdlog7details2os17is_color_terminalEvENK3$_0clEvEUlS1_E_EEET_SD_SD_T0_"(ptr noundef %10, ptr noundef %11, ptr %19)
  ret ptr %20
}

; Function Attrs: mustprogress nounwind uwtable
define linkonce_odr dso_local noundef ptr @_ZNSt14__array_traitsIPKcLm16EE6_S_ptrERA16_KS1_(ptr noundef nonnull align 8 dereferenceable(128) %0) #0 comdat align 2 {
  %2 = alloca ptr, align 8
  store ptr %0, ptr %2, align 8, !tbaa !124
  %3 = load ptr, ptr %2, align 8, !tbaa !124
  %4 = getelementptr inbounds [16 x ptr], ptr %3, i64 0, i64 0
  ret ptr %4
}

; Function Attrs: inlinehint mustprogress uwtable
define internal noundef zeroext i1 @"_ZSt7none_ofIPKPKcZZN6spdlog7details2os17is_color_terminalEvENK3$_0clEvEUlS1_E_EbT_S9_T0_"(ptr noundef %0, ptr noundef %1, ptr %2) #2 {
  %4 = alloca %class.anon.138, align 8
  %5 = alloca ptr, align 8
  %6 = alloca ptr, align 8
  %7 = alloca %class.anon.138, align 8
  %8 = getelementptr inbounds nuw %class.anon.138, ptr %4, i32 0, i32 0
  store ptr %2, ptr %8, align 8
  store ptr %0, ptr %5, align 8, !tbaa !124
  store ptr %1, ptr %6, align 8, !tbaa !124
  %9 = load ptr, ptr %6, align 8, !tbaa !124
  %10 = load ptr, ptr %5, align 8, !tbaa !124
  %11 = load ptr, ptr %6, align 8, !tbaa !124
  call void @llvm.memcpy.p0.p0.i64(ptr align 8 %7, ptr align 8 %4, i64 8, i1 false), !tbaa.struct !413
  %12 = getelementptr inbounds nuw %class.anon.138, ptr %7, i32 0, i32 0
  %13 = load ptr, ptr %12, align 8
  %14 = call noundef ptr @"_ZSt7find_ifIPKPKcZZN6spdlog7details2os17is_color_terminalEvENK3$_0clEvEUlS1_E_ET_S9_S9_T0_"(ptr noundef %10, ptr noundef %11, ptr %13)
  %15 = icmp eq ptr %9, %14
  ret i1 %15
}

; Function Attrs: mustprogress nounwind uwtable
define linkonce_odr dso_local noundef ptr @_ZNKSt5arrayIPKcLm16EE4dataEv(ptr noundef nonnull align 8 dereferenceable(128) %0) #0 comdat align 2 {
  %2 = alloca ptr, align 8
  store ptr %0, ptr %2, align 8, !tbaa !414
  %3 = load ptr, ptr %2, align 8
  %4 = getelementptr inbounds nuw %"struct.std::array", ptr %3, i32 0, i32 0
  %5 = call noundef ptr @_ZNSt14__array_traitsIPKcLm16EE6_S_ptrERA16_KS1_(ptr noundef nonnull align 8 dereferenceable(128) %4) #13
  ret ptr %5
}

; Function Attrs: inlinehint mustprogress uwtable
define internal noundef zeroext i1 @"_ZSt6any_ofIPKPKcZZN6spdlog7details2os17is_color_terminalEvENK3$_0clEvEUlS1_E_EbT_S9_T0_"(ptr noundef %0, ptr noundef %1, ptr %2) #2 {
  %4 = alloca %class.anon.138, align 8
  %5 = alloca ptr, align 8
  %6 = alloca ptr, align 8
  %7 = alloca %class.anon.138, align 8
  %8 = getelementptr inbounds nuw %class.anon.138, ptr %4, i32 0, i32 0
  store ptr %2, ptr %8, align 8
  store ptr %0, ptr %5, align 8, !tbaa !124
  store ptr %1, ptr %6, align 8, !tbaa !124
  %9 = load ptr, ptr %5, align 8, !tbaa !124
  %10 = load ptr, ptr %6, align 8, !tbaa !124
  call void @llvm.memcpy.p0.p0.i64(ptr align 8 %7, ptr align 8 %4, i64 8, i1 false), !tbaa.struct !413
  %11 = getelementptr inbounds nuw %class.anon.138, ptr %7, i32 0, i32 0
  %12 = load ptr, ptr %11, align 8
  %13 = call noundef zeroext i1 @"_ZSt7none_ofIPKPKcZZN6spdlog7details2os17is_color_terminalEvENK3$_0clEvEUlS1_E_EbT_S9_T0_"(ptr noundef %9, ptr noundef %10, ptr %12)
  %14 = xor i1 %13, true
  ret i1 %14
}

; Function Attrs: mustprogress nounwind uwtable
define linkonce_odr dso_local noundef ptr @_ZNKSt5arrayIPKcLm16EE3endEv(ptr noundef nonnull align 8 dereferenceable(128) %0) #0 comdat align 2 {
  %2 = alloca ptr, align 8
  store ptr %0, ptr %2, align 8, !tbaa !414
  %3 = load ptr, ptr %2, align 8
  %4 = call noundef ptr @_ZNKSt5arrayIPKcLm16EE4dataEv(ptr noundef nonnull align 8 dereferenceable(128) %3) #13
  %5 = getelementptr inbounds nuw ptr, ptr %4, i64 16
  ret ptr %5
}

; Function Attrs: mustprogress nounwind uwtable
define linkonce_odr dso_local noundef ptr @_ZNKSt5arrayIPKcLm16EE5beginEv(ptr noundef nonnull align 8 dereferenceable(128) %0) #0 comdat align 2 {
  %2 = alloca ptr, align 8
  store ptr %0, ptr %2, align 8, !tbaa !414
  %3 = load ptr, ptr %2, align 8
  %4 = call noundef ptr @_ZNKSt5arrayIPKcLm16EE4dataEv(ptr noundef nonnull align 8 dereferenceable(128) %3) #13
  ret ptr %4
}

; Function Attrs: inlinehint mustprogress uwtable
define internal noundef zeroext i1 @"_ZZN6spdlog7details2os17is_color_terminalEvENK3$_0clEv"(ptr noundef nonnull align 1 dereferenceable(1) %0) #2 align 2 {
  %2 = alloca i1, align 1
  %3 = alloca ptr, align 8
  %4 = alloca ptr, align 8
  %5 = alloca i32, align 4
  %6 = alloca ptr, align 8
  %7 = alloca %class.anon.138, align 8
  store ptr %0, ptr %3, align 8, !tbaa !123
  call void @llvm.lifetime.start.p0(i64 8, ptr %4) #13
  %8 = call ptr @getenv(ptr noundef @.str.28) #13
  store ptr %8, ptr %4, align 8, !tbaa !8
  %9 = load ptr, ptr %4, align 8, !tbaa !8
  %10 = icmp ne ptr %9, null
  br i1 %10, label %11, label %12

11:                                               ; preds = %1
  store i1 true, ptr %2, align 1
  store i32 1, ptr %5, align 4
  br label %25

12:                                               ; preds = %1
  call void @llvm.lifetime.start.p0(i64 8, ptr %6) #13
  %13 = call ptr @getenv(ptr noundef @.str.45) #13
  store ptr %13, ptr %6, align 8, !tbaa !8
  %14 = load ptr, ptr %6, align 8, !tbaa !8
  %15 = icmp eq ptr %14, null
  br i1 %15, label %16, label %17

16:                                               ; preds = %12
  store i1 false, ptr %2, align 1
  store i32 1, ptr %5, align 4
  br label %24

17:                                               ; preds = %12
  %18 = call noundef ptr @_ZNKSt5arrayIPKcLm16EE5beginEv(ptr noundef nonnull align 8 dereferenceable(128) @"_ZZZN6spdlog7details2os17is_color_terminalEvENK3$_0clEvE5terms") #13
  %19 = call noundef ptr @_ZNKSt5arrayIPKcLm16EE3endEv(ptr noundef nonnull align 8 dereferenceable(128) @"_ZZZN6spdlog7details2os17is_color_terminalEvENK3$_0clEvE5terms") #13
  %20 = getelementptr inbounds nuw %class.anon.138, ptr %7, i32 0, i32 0
  store ptr %6, ptr %20, align 8, !tbaa !124
  %21 = getelementptr inbounds nuw %class.anon.138, ptr %7, i32 0, i32 0
  %22 = load ptr, ptr %21, align 8
  %23 = call noundef zeroext i1 @"_ZSt6any_ofIPKPKcZZN6spdlog7details2os17is_color_terminalEvENK3$_0clEvEUlS1_E_EbT_S9_T0_"(ptr noundef %18, ptr noundef %19, ptr %22)
  store i1 %23, ptr %2, align 1
  store i32 1, ptr %5, align 4
  br label %24

24:                                               ; preds = %17, %16
  call void @llvm.lifetime.end.p0(i64 8, ptr %6) #13
  br label %25

25:                                               ; preds = %24, %11
  call void @llvm.lifetime.end.p0(i64 8, ptr %4) #13
  %26 = load i1, ptr %2, align 1
  ret i1 %26
}