; Function Attrs: inlinehint mustprogress nofree nounwind willreturn memory(read) uwtable
define internal fastcc noundef zeroext i1 @"_ZZN6spdlog7details2os17is_color_terminalEvENK3$_0clEv"() unnamed_addr #21 align 2 {
  %1 = tail call ptr @getenv(ptr noundef nonnull @.str.28) #37
  %.not = icmp eq ptr %1, null
  br i1 %.not, label %2, label %23

2:                                                ; preds = %0
  %3 = tail call ptr @getenv(ptr noundef nonnull @.str.45) #37
  %4 = icmp eq ptr %3, null
  br i1 %4, label %23, label %.preheader

.preheader:                                       ; preds = %2, %15
  %.057.i.i.i.i.i = phi i64 [ %17, %15 ], [ 4, %2 ]
  %.02956.i.i.i.i.i = phi ptr [ %16, %15 ], [ @"_ZZZN6spdlog7details2os17is_color_terminalEvENK3$_0clEvE5terms", %2 ]
  %.029.val.i.i.i.i.i = load ptr, ptr %.02956.i.i.i.i.i, align 8, !tbaa !4
  %5 = tail call noundef ptr @strstr(ptr noundef nonnull readonly dereferenceable(1) %3, ptr noundef nonnull readonly dereferenceable(1) %.029.val.i.i.i.i.i) #47
  %.not42.i.i.i.i.i = icmp eq ptr %5, null
  br i1 %.not42.i.i.i.i.i, label %6, label %"_ZSt6any_ofIPKPKcZZN6spdlog7details2os17is_color_terminalEvENK3$_0clEvEUlS1_E_EbT_S9_T0_.exit"

6:                                                ; preds = %.preheader
  %7 = getelementptr inbounds nuw i8, ptr %.02956.i.i.i.i.i, i64 8
  %.val31.i.i.i.i.i = load ptr, ptr %7, align 8, !tbaa !4
  %8 = tail call noundef ptr @strstr(ptr noundef nonnull readonly dereferenceable(1) %3, ptr noundef nonnull readonly dereferenceable(1) %.val31.i.i.i.i.i) #47
  %.not43.i.i.i.i.i = icmp eq ptr %8, null
  br i1 %.not43.i.i.i.i.i, label %9, label %"_ZSt6any_ofIPKPKcZZN6spdlog7details2os17is_color_terminalEvENK3$_0clEvEUlS1_E_EbT_S9_T0_.exit.split.loop.exit16"

9:                                                ; preds = %6
  %10 = getelementptr inbounds nuw i8, ptr %.02956.i.i.i.i.i, i64 16
  %.val33.i.i.i.i.i = load ptr, ptr %10, align 8, !tbaa !4
  %11 = tail call noundef ptr @strstr(ptr noundef nonnull readonly dereferenceable(1) %3, ptr noundef nonnull readonly dereferenceable(1) %.val33.i.i.i.i.i) #47
  %.not44.i.i.i.i.i = icmp eq ptr %11, null
  br i1 %.not44.i.i.i.i.i, label %12, label %"_ZSt6any_ofIPKPKcZZN6spdlog7details2os17is_color_terminalEvENK3$_0clEvEUlS1_E_EbT_S9_T0_.exit.split.loop.exit18"

12:                                               ; preds = %9
  %13 = getelementptr inbounds nuw i8, ptr %.02956.i.i.i.i.i, i64 24
  %.val35.i.i.i.i.i = load ptr, ptr %13, align 8, !tbaa !4
  %14 = tail call noundef ptr @strstr(ptr noundef nonnull readonly dereferenceable(1) %3, ptr noundef nonnull readonly dereferenceable(1) %.val35.i.i.i.i.i) #47
  %.not45.i.i.i.i.i = icmp eq ptr %14, null
  br i1 %.not45.i.i.i.i.i, label %15, label %"_ZSt6any_ofIPKPKcZZN6spdlog7details2os17is_color_terminalEvENK3$_0clEvEUlS1_E_EbT_S9_T0_.exit.split.loop.exit20"

15:                                               ; preds = %12
  %16 = getelementptr inbounds nuw i8, ptr %.02956.i.i.i.i.i, i64 32
  %17 = add nsw i64 %.057.i.i.i.i.i, -1
  %18 = icmp ugt i64 %.057.i.i.i.i.i, 1
  br i1 %18, label %.preheader, label %"_ZSt6any_ofIPKPKcZZN6spdlog7details2os17is_color_terminalEvENK3$_0clEvEUlS1_E_EbT_S9_T0_.exit", !llvm.loop !84

"_ZSt6any_ofIPKPKcZZN6spdlog7details2os17is_color_terminalEvENK3$_0clEvEUlS1_E_EbT_S9_T0_.exit.split.loop.exit16": ; preds = %6
  %19 = getelementptr inbounds nuw i8, ptr %.02956.i.i.i.i.i, i64 8
  br label %"_ZSt6any_ofIPKPKcZZN6spdlog7details2os17is_color_terminalEvENK3$_0clEvEUlS1_E_EbT_S9_T0_.exit"

"_ZSt6any_ofIPKPKcZZN6spdlog7details2os17is_color_terminalEvENK3$_0clEvEUlS1_E_EbT_S9_T0_.exit.split.loop.exit18": ; preds = %9
  %20 = getelementptr inbounds nuw i8, ptr %.02956.i.i.i.i.i, i64 16
  br label %"_ZSt6any_ofIPKPKcZZN6spdlog7details2os17is_color_terminalEvENK3$_0clEvEUlS1_E_EbT_S9_T0_.exit"

"_ZSt6any_ofIPKPKcZZN6spdlog7details2os17is_color_terminalEvENK3$_0clEvEUlS1_E_EbT_S9_T0_.exit.split.loop.exit20": ; preds = %12
  %21 = getelementptr inbounds nuw i8, ptr %.02956.i.i.i.i.i, i64 24
  br label %"_ZSt6any_ofIPKPKcZZN6spdlog7details2os17is_color_terminalEvENK3$_0clEvEUlS1_E_EbT_S9_T0_.exit"

"_ZSt6any_ofIPKPKcZZN6spdlog7details2os17is_color_terminalEvENK3$_0clEvEUlS1_E_EbT_S9_T0_.exit": ; preds = %15, %.preheader, %"_ZSt6any_ofIPKPKcZZN6spdlog7details2os17is_color_terminalEvENK3$_0clEvEUlS1_E_EbT_S9_T0_.exit.split.loop.exit20", %"_ZSt6any_ofIPKPKcZZN6spdlog7details2os17is_color_terminalEvENK3$_0clEvEUlS1_E_EbT_S9_T0_.exit.split.loop.exit18", %"_ZSt6any_ofIPKPKcZZN6spdlog7details2os17is_color_terminalEvENK3$_0clEvEUlS1_E_EbT_S9_T0_.exit.split.loop.exit16"
  %.028.i.i.i.i.i = phi ptr [ %19, %"_ZSt6any_ofIPKPKcZZN6spdlog7details2os17is_color_terminalEvENK3$_0clEvEUlS1_E_EbT_S9_T0_.exit.split.loop.exit16" ], [ %20, %"_ZSt6any_ofIPKPKcZZN6spdlog7details2os17is_color_terminalEvENK3$_0clEvEUlS1_E_EbT_S9_T0_.exit.split.loop.exit18" ], [ %21, %"_ZSt6any_ofIPKPKcZZN6spdlog7details2os17is_color_terminalEvENK3$_0clEvEUlS1_E_EbT_S9_T0_.exit.split.loop.exit20" ], [ %.02956.i.i.i.i.i, %.preheader ], [ getelementptr inbounds nuw (i8, ptr @"_ZZZN6spdlog7details2os17is_color_terminalEvENK3$_0clEvE5terms", i64 128), %15 ]
  %22 = icmp ne ptr %.028.i.i.i.i.i, getelementptr inbounds nuw (i8, ptr @"_ZZZN6spdlog7details2os17is_color_terminalEvENK3$_0clEvE5terms", i64 128)
  br label %23

23:                                               ; preds = %"_ZSt6any_ofIPKPKcZZN6spdlog7details2os17is_color_terminalEvENK3$_0clEvEUlS1_E_EbT_S9_T0_.exit", %2, %0
  %.0 = phi i1 [ true, %0 ], [ %22, %"_ZSt6any_ofIPKPKcZZN6spdlog7details2os17is_color_terminalEvENK3$_0clEvEUlS1_E_EbT_S9_T0_.exit" ], [ false, %2 ]
  ret i1 %.0
}